; Function Attrs: mustprogress uwtable
define hidden void @_ZN4cvc58internal3smt15AbductionSolverC2ERNS0_3EnvE(ptr noundef nonnull align 8 dereferenceable(64) %this, ptr noundef nonnull align 8 dereferenceable(576) %env) unnamed_addr #3 align 2 personality ptr @__gxx_personality_v0 {
entry:
  tail call void @_ZN4cvc58internal6EnvObjC2ERNS0_3EnvE(ptr noundef nonnull align 8 dereferenceable(16) %this, ptr noundef nonnull align 8 dereferenceable(576) %env)
  store ptr getelementptr inbounds ({ [4 x ptr] }, ptr @_ZTVN4cvc58internal3smt15AbductionSolverE, i64 0, i32 0, i64 2), ptr %this, align 8
  %d_subsolver = getelementptr inbounds i8, ptr %this, i64 16
  store ptr null, ptr %d_subsolver, align 8
  %d_abdConj = getelementptr inbounds i8, ptr %this, i64 24
  %0 = load atomic i8, ptr @_ZGVZN4cvc58internal4expr9NodeValue4nullEvE6s_null acquire, align 8
  %guard.uninitialized.i.i = icmp eq i8 %0, 0
  br i1 %guard.uninitialized.i.i, label %init.check.i.i, label %invoke.cont, !prof !4

init.check.i.i:                                   ; preds = %entry
  %1 = tail call i32 @__cxa_guard_acquire(ptr nonnull @_ZGVZN4cvc58internal4expr9NodeValue4nullEvE6s_null) #17
  %tobool.not.i.i = icmp eq i32 %1, 0
  br i1 %tobool.not.i.i, label %invoke.cont, label %init.i.i

init.i.i:                                         ; preds = %init.check.i.i
  %call.i.i = invoke noalias noundef nonnull dereferenceable(16) ptr @_Znwm(i64 noundef 16) #18
          to label %invoke.cont.i.i unwind label %lpad.i.i

invoke.cont.i.i:                                  ; preds = %init.i.i
  store i64 1152920405095219200, ptr %call.i.i, align 8
  %d_kind.i.i.i = getelementptr inbounds i8, ptr %call.i.i, i64 8
  store i16 0, ptr %d_kind.i.i.i, align 8
  %d_nchildren.i.i.i = getelementptr inbounds i8, ptr %call.i.i, i64 12
  store i32 0, ptr %d_nchildren.i.i.i, align 4
  store ptr %call.i.i, ptr @_ZZN4cvc58internal4expr9NodeValue4nullEvE6s_null, align 8
  tail call void @__cxa_guard_release(ptr nonnull @_ZGVZN4cvc58internal4expr9NodeValue4nullEvE6s_null) #17
  br label %invoke.cont

lpad.i.i:                                         ; preds = %init.i.i
  %2 = landingpad { ptr, i32 }
          cleanup
  tail call void @__cxa_guard_abort(ptr nonnull @_ZGVZN4cvc58internal4expr9NodeValue4nullEvE6s_null) #17
  br label %ehcleanup

invoke.cont:                                      ; preds = %invoke.cont.i.i, %init.check.i.i, %entry
  %3 = load ptr, ptr @_ZZN4cvc58internal4expr9NodeValue4nullEvE6s_null, align 8
  store ptr %3, ptr %d_abdConj, align 8
  %4 = load atomic i8, ptr @_ZGVZN4cvc58internal4expr9NodeValue4nullEvE6s_null acquire, align 8
  %guard.uninitialized.i.i2 = icmp eq i8 %4, 0
  br i1 %guard.uninitialized.i.i2, label %init.check.i.i3, label %invoke.cont3, !prof !4

init.check.i.i3:                                  ; preds = %invoke.cont
  %5 = tail call i32 @__cxa_guard_acquire(ptr nonnull @_ZGVZN4cvc58internal4expr9NodeValue4nullEvE6s_null) #17
  %tobool.not.i.i4 = icmp eq i32 %5, 0
  br i1 %tobool.not.i.i4, label %invoke.cont3, label %init.i.i5

init.i.i5:                                        ; preds = %init.check.i.i3
  %call.i.i6 = invoke noalias noundef nonnull dereferenceable(16) ptr @_Znwm(i64 noundef 16) #18
          to label %invoke.cont.i.i8 unwind label %lpad.i.i7

invoke.cont.i.i8:                                 ; preds = %init.i.i5
  store i64 1152920405095219200, ptr %call.i.i6, align 8
  %d_kind.i.i.i9 = getelementptr inbounds i8, ptr %call.i.i6, i64 8
  store i16 0, ptr %d_kind.i.i.i9, align 8
  %d_nchildren.i.i.i10 = getelementptr inbounds i8, ptr %call.i.i6, i64 12
  store i32 0, ptr %d_nchildren.i.i.i10, align 4
  store ptr %call.i.i6, ptr @_ZZN4cvc58internal4expr9NodeValue4nullEvE6s_null, align 8
  tail call void @__cxa_guard_release(ptr nonnull @_ZGVZN4cvc58internal4expr9NodeValue4nullEvE6s_null) #17
  br label %invoke.cont3

lpad.i.i7:                                        ; preds = %init.i.i5
  %6 = landingpad { ptr, i32 }
          cleanup
  tail call void @__cxa_guard_abort(ptr nonnull @_ZGVZN4cvc58internal4expr9NodeValue4nullEvE6s_null) #17
  tail call void @_ZN4cvc58internal12NodeTemplateILb1EED2Ev(ptr noundef nonnull align 8 dereferenceable(8) %d_abdConj) #17
  br label %ehcleanup

invoke.cont3:                                     ; preds = %invoke.cont.i.i8, %init.check.i.i3, %invoke.cont
  %d_sssf = getelementptr inbounds i8, ptr %this, i64 32
  %7 = load ptr, ptr @_ZZN4cvc58internal4expr9NodeValue4nullEvE6s_null, align 8
  store ptr %7, ptr %d_sssf, align 8
  %d_axioms = getelementptr inbounds i8, ptr %this, i64 40
  tail call void @llvm.memset.p0.i64(ptr noundef nonnull align 8 dereferenceable(24) %d_axioms, i8 0, i64 24, i1 false)
  ret void

ehcleanup:                                        ; preds = %lpad.i.i, %lpad.i.i7
  %.pn = phi { ptr, i32 } [ %6, %lpad.i.i7 ], [ %2, %lpad.i.i ]
  tail call void @_ZNSt10unique_ptrIN4cvc58internal12SolverEngineESt14default_deleteIS2_EED2Ev(ptr noundef nonnull align 8 dereferenceable(8) %d_subsolver) #17
  resume { ptr, i32 } %.pn
}